(dp0
S'10.0.0.143'
p1
(S'unkown'
p2
g2
tp3
sS'10.0.0.147'
p4
(F1387705145.375344
S'Hello, world'
p5
tp6
sS'192.168.2.241'
p7
(F1388292261.565797
S'MemTotal:         901292 kB\nMemFree:          191064 kB\nCached:           153436 kB\nSwapCached:         9180 kB\nSwapTotal:        919548 kB\nSwapFree:         846072 kB'
p8
tp9
sS'10.0.0.149'
p10
g3
sS'192.168.2.240'
p11
(F1388299962.457409
S'MemTotal:         901292 kB\nMemFree:          175916 kB\nCached:           158468 kB\nSwapCached:         8992 kB\nSwapTotal:        919548 kB\nSwapFree:         846720 kB'
p12
tp13
sS'10.0.0.121'
p14
g3
sS'10.0.0.135'
p15
(F1387705154.549266
S'5386 6534'
p16
tp17
sS'10.0.0.134'
p18
g3
sS'10.0.0.132'
p19
g3
sS'127.0.0.1'
p20
(F1388300016.271518
S'Hello, world'
p21
tp22
sS'10.0.0.107'
p23
g3
sS'10.0.0.139'
p24
(F1387705108.014894
S'Hello , world'
p25
tp26
sS'10.0.0.125'
p27
g3
s.